(lp0
(lp1
(I4
I10
tp2
a(I5
I11
tp3
a(I6
I11
tp4
a(I6
I10
tp5
a(I6
I9
tp6
a(I7
I8
tp7
a(I8
I7
tp8
a(I9
I6
tp9
a(I10
I5
tp10
a(I11
I5
tp11
a(I12
I5
tp12
a(I13
I5
tp13
a(I14
I5
tp14
a(I15
I6
tp15
a(I16
I7
tp16
a(I17
I8
tp17
a(I18
I9
tp18
a(I19
I10
tp19
a(I20
I11
tp20
a(I20
I12
tp21
a(I20
I13
tp22
a(I20
I14
tp23
a(I20
I15
tp24
a(I20
I16
tp25
a(I20
I17
tp26
a(I20
I18
tp27
a(I20
I19
tp28
a(I20
I20
tp29
a(I20
I21
tp30
a(I20
I22
tp31
a(I20
I23
tp32
a(I19
I24
tp33
a(I19
I25
tp34
a(I19
I26
tp35
a(I18
I27
tp36
a(I18
I26
tp37
a(I18
I25
tp38
a(I18
I24
tp39
a(I19
I23
tp40
a(I19
I22
tp41
a(I19
I21
tp42
a(I19
I20
tp43
a(I19
I19
tp44
a(I19
I18
tp45
a(I19
I17
tp46
a(I19
I16
tp47
a(I19
I15
tp48
a(I19
I14
tp49
a(I19
I13
tp50
a(I19
I12
tp51
a(I19
I11
tp52
a(I20
I10
tp53
a(I19
I9
tp54
a(I19
I8
tp55
a(I19
I7
tp56
a(I18
I8
tp57
a(I18
I7
tp58
a(I18
I6
tp59
a(I17
I7
tp60
a(I17
I6
tp61
a(I17
I5
tp62
a(I16
I6
tp63
a(I16
I5
tp64
a(I16
I4
tp65
a(I15
I5
tp66
a(I15
I4
tp67
a(I14
I4
tp68
a(I13
I4
tp69
a(I12
I4
tp70
a(I11
I4
tp71
a(I10
I4
tp72
a(I9
I5
tp73
a(I9
I4
tp74
a(I8
I5
tp75
a(I8
I6
tp76
a(I7
I7
tp77
a(I7
I6
tp78
a(I7
I5
tp79
a(I8
I4
tp80
a(I6
I6
tp81
a(I6
I7
tp82
a(I6
I8
tp83
a(I5
I9
tp84
a(I5
I10
tp85
a(I4
I11
tp86
a(I5
I12
tp87
a(I5
I13
tp88
a(I5
I14
tp89
a(I5
I15
tp90
a(I5
I16
tp91
a(I5
I17
tp92
a(I5
I18
tp93
a(I5
I19
tp94
a(I5
I20
tp95
a(I5
I21
tp96
a(I6
I22
tp97
a(I6
I23
tp98
a(I6
I24
tp99
a(I7
I25
tp100
a(I8
I26
tp101
a(I9
I27
tp102
a(I10
I28
tp103
a(I11
I29
tp104
a(I12
I30
tp105
a(I13
I30
tp106
a(I14
I29
tp107
a(I15
I29
tp108
a(I16
I29
tp109
a(I17
I28
tp110
a(I17
I27
tp111
a(I17
I26
tp112
a(I17
I25
tp113
a(I16
I26
tp114
a(I16
I27
tp115
a(I16
I28
tp116
a(I15
I28
tp117
a(I15
I27
tp118
a(I14
I28
tp119
a(I13
I29
tp120
a(I13
I28
tp121
a(I12
I29
tp122
a(I12
I28
tp123
a(I11
I28
tp124
a(I10
I29
tp125
a(I11
I30
tp126
a(I9
I29
tp127
a(I9
I28
tp128
a(I8
I29
tp129
a(I8
I28
tp130
a(I8
I27
tp131
a(I7
I28
tp132
a(I7
I27
tp133
a(I7
I26
tp134
a(I6
I27
tp135
a(I6
I26
tp136
a(I6
I25
tp137
a(I5
I26
tp138
a(I5
I25
tp139
a(I5
I24
tp140
a(I5
I23
tp141
a(I5
I22
tp142
a(I4
I23
tp143
a(I4
I22
tp144
a(I4
I21
tp145
a(I4
I20
tp146
a(I4
I19
tp147
a(I4
I18
tp148
a(I4
I17
tp149
a(I4
I16
tp150
a(I4
I15
tp151
a(I4
I14
tp152
a(I4
I13
tp153
a(I4
I12
tp154
a(I5
I8
tp155
a(I5
I7
tp156
a(I18
I10
tp157
a(I18
I11
tp158
a(I18
I22
tp159
a(I18
I23
tp160
aa(lp161
(I9
I38
tp162
a(I10
I39
tp163
a(I11
I38
tp164
a(I12
I37
tp165
a(I13
I37
tp166
a(I14
I36
tp167
a(I15
I36
tp168
a(I16
I36
tp169
a(I17
I36
tp170
a(I18
I36
tp171
a(I19
I35
tp172
a(I20
I35
tp173
a(I21
I35
tp174
a(I22
I35
tp175
a(I23
I35
tp176
a(I24
I35
tp177
a(I25
I35
tp178
a(I26
I35
tp179
a(I27
I35
tp180
a(I28
I35
tp181
a(I29
I35
tp182
a(I30
I35
tp183
a(I31
I35
tp184
a(I32
I35
tp185
a(I33
I35
tp186
a(I34
I35
tp187
a(I35
I35
tp188
a(I36
I36
tp189
a(I37
I36
tp190
a(I38
I36
tp191
a(I39
I36
tp192
a(I40
I36
tp193
a(I41
I37
tp194
a(I42
I37
tp195
a(I43
I38
tp196
a(I44
I39
tp197
a(I45
I40
tp198
a(I45
I41
tp199
a(I44
I42
tp200
a(I44
I41
tp201
a(I44
I40
tp202
a(I45
I39
tp203
a(I45
I38
tp204
a(I44
I38
tp205
a(I44
I37
tp206
a(I43
I37
tp207
a(I42
I36
tp208
a(I41
I36
tp209
a(I40
I35
tp210
a(I39
I35
tp211
a(I38
I35
tp212
a(I37
I35
tp213
a(I36
I35
tp214
a(I35
I34
tp215
a(I34
I34
tp216
a(I33
I34
tp217
a(I32
I34
tp218
a(I31
I34
tp219
a(I30
I34
tp220
a(I29
I34
tp221
a(I28
I34
tp222
a(I27
I34
tp223
a(I26
I34
tp224
a(I25
I34
tp225
a(I24
I34
tp226
a(I23
I34
tp227
a(I22
I34
tp228
a(I21
I34
tp229
a(I20
I34
tp230
a(I19
I34
tp231
a(I18
I35
tp232
a(I17
I35
tp233
a(I16
I35
tp234
a(I15
I35
tp235
a(I14
I35
tp236
a(I13
I36
tp237
a(I12
I36
tp238
a(I11
I37
tp239
a(I10
I38
tp240
a(I10
I37
tp241
a(I9
I39
tp242
a(I10
I40
tp243
a(I11
I41
tp244
a(I12
I42
tp245
a(I13
I43
tp246
a(I14
I44
tp247
a(I15
I44
tp248
a(I16
I44
tp249
a(I17
I44
tp250
a(I18
I44
tp251
a(I19
I45
tp252
a(I20
I45
tp253
a(I21
I45
tp254
a(I22
I45
tp255
a(I23
I45
tp256
a(I24
I45
tp257
a(I25
I45
tp258
a(I26
I45
tp259
a(I27
I45
tp260
a(I28
I45
tp261
a(I29
I45
tp262
a(I30
I45
tp263
a(I31
I45
tp264
a(I32
I45
tp265
a(I33
I45
tp266
a(I34
I45
tp267
a(I35
I45
tp268
a(I36
I44
tp269
a(I37
I44
tp270
a(I38
I44
tp271
a(I39
I44
tp272
a(I40
I44
tp273
a(I41
I43
tp274
a(I42
I43
tp275
a(I43
I42
tp276
a(I43
I41
tp277
a(I42
I42
tp278
a(I41
I42
tp279
a(I40
I43
tp280
a(I39
I43
tp281
a(I38
I43
tp282
a(I37
I43
tp283
a(I36
I43
tp284
a(I35
I44
tp285
a(I34
I44
tp286
a(I33
I44
tp287
a(I32
I44
tp288
a(I31
I44
tp289
a(I30
I44
tp290
a(I29
I44
tp291
a(I28
I44
tp292
a(I27
I44
tp293
a(I26
I44
tp294
a(I25
I44
tp295
a(I24
I44
tp296
a(I23
I44
tp297
a(I22
I44
tp298
a(I21
I44
tp299
a(I20
I44
tp300
a(I19
I44
tp301
a(I18
I43
tp302
a(I17
I43
tp303
a(I16
I43
tp304
a(I15
I43
tp305
a(I14
I43
tp306
a(I13
I42
tp307
a(I12
I43
tp308
a(I11
I42
tp309
a(I10
I42
tp310
a(I10
I41
tp311
a(I9
I41
tp312
a(I9
I40
tp313
aa(lp314
(I36
I13
tp315
a(I37
I14
tp316
a(I37
I15
tp317
a(I37
I16
tp318
a(I38
I17
tp319
a(I38
I18
tp320
a(I39
I19
tp321
a(I40
I20
tp322
a(I41
I20
tp323
a(I42
I20
tp324
a(I43
I20
tp325
a(I44
I19
tp326
a(I45
I18
tp327
a(I45
I17
tp328
a(I46
I16
tp329
a(I46
I15
tp330
a(I46
I14
tp331
a(I46
I13
tp332
a(I45
I14
tp333
a(I45
I15
tp334
a(I45
I16
tp335
a(I44
I17
tp336
a(I44
I18
tp337
a(I43
I19
tp338
a(I42
I19
tp339
a(I41
I19
tp340
a(I40
I19
tp341
a(I39
I20
tp342
a(I38
I19
tp343
a(I37
I18
tp344
a(I37
I17
tp345
a(I36
I16
tp346
a(I36
I15
tp347
a(I36
I14
tp348
a(I37
I13
tp349
a(I38
I12
tp350
a(I38
I11
tp351
a(I39
I10
tp352
a(I40
I10
tp353
a(I41
I10
tp354
a(I42
I10
tp355
a(I43
I10
tp356
a(I44
I11
tp357
a(I45
I12
tp358
a(I45
I13
tp359
a(I44
I12
tp360
a(I45
I11
tp361
a(I44
I10
tp362
a(I43
I9
tp363
a(I42
I9
tp364
a(I41
I9
tp365
a(I40
I9
tp366
a(I39
I9
tp367
a(I38
I10
tp368
a(I37
I11
tp369
a(I37
I12
tp370
aa.